target datalayout = "e-m:e-p270:32:32-p271:32:32-p272:64:64-i64:64-i128:128-f80:128-n8:16:32:64-S128"
target triple = "x86_64-pc-linux-gnu"

%"class.std::__cxx11::basic_string" = type { %"struct.std::__cxx11::basic_string<char>::_Alloc_hider", i64, %union.anon }
%"struct.std::__cxx11::basic_string<char>::_Alloc_hider" = type { ptr }
%union.anon = type { i64, [8 x i8] }
%"struct.cv::utils::logging::LogTagManager::NameTable" = type { %"class.std::vector", %"class.std::vector.2", %"class.std::unordered_map", %"class.std::unordered_map", %"class.std::unordered_multimap", %"class.std::unordered_multimap" }
%"class.std::vector" = type { %"struct.std::_Vector_base" }
%"struct.std::_Vector_base" = type { %"struct.std::_Vector_base<cv::utils::logging::LogTagManager::FullNameInfo, std::allocator<cv::utils::logging::LogTagManager::FullNameInfo>>::_Vector_impl" }
%"struct.std::_Vector_base<cv::utils::logging::LogTagManager::FullNameInfo, std::allocator<cv::utils::logging::LogTagManager::FullNameInfo>>::_Vector_impl" = type { %"struct.std::_Vector_base<cv::utils::logging::LogTagManager::FullNameInfo, std::allocator<cv::utils::logging::LogTagManager::FullNameInfo>>::_Vector_impl_data" }
%"struct.std::_Vector_base<cv::utils::logging::LogTagManager::FullNameInfo, std::allocator<cv::utils::logging::LogTagManager::FullNameInfo>>::_Vector_impl_data" = type { ptr, ptr, ptr }
%"class.std::vector.2" = type { %"struct.std::_Vector_base.3" }
%"struct.std::_Vector_base.3" = type { %"struct.std::_Vector_base<cv::utils::logging::LogTagManager::NamePartInfo, std::allocator<cv::utils::logging::LogTagManager::NamePartInfo>>::_Vector_impl" }
%"struct.std::_Vector_base<cv::utils::logging::LogTagManager::NamePartInfo, std::allocator<cv::utils::logging::LogTagManager::NamePartInfo>>::_Vector_impl" = type { %"struct.std::_Vector_base<cv::utils::logging::LogTagManager::NamePartInfo, std::allocator<cv::utils::logging::LogTagManager::NamePartInfo>>::_Vector_impl_data" }
%"struct.std::_Vector_base<cv::utils::logging::LogTagManager::NamePartInfo, std::allocator<cv::utils::logging::LogTagManager::NamePartInfo>>::_Vector_impl_data" = type { ptr, ptr, ptr }
%"class.std::unordered_map" = type { %"class.std::_Hashtable" }
%"class.std::_Hashtable" = type { ptr, i64, %"struct.std::__detail::_Hash_node_base", i64, %"struct.std::__detail::_Prime_rehash_policy", ptr }
%"struct.std::__detail::_Hash_node_base" = type { ptr }
%"struct.std::__detail::_Prime_rehash_policy" = type { float, i64 }
%"class.std::unordered_multimap" = type { %"class.std::_Hashtable.12" }
%"class.std::_Hashtable.12" = type { ptr, i64, %"struct.std::__detail::_Hash_node_base", i64, %"struct.std::__detail::_Prime_rehash_policy", ptr }
%"class.std::vector.49" = type { %"struct.std::_Vector_base.50" }
%"struct.std::_Vector_base.50" = type { %"struct.std::_Vector_base<cv::utils::logging::LogTagManager::CrossReference, std::allocator<cv::utils::logging::LogTagManager::CrossReference>>::_Vector_impl" }
%"struct.std::_Vector_base<cv::utils::logging::LogTagManager::CrossReference, std::allocator<cv::utils::logging::LogTagManager::CrossReference>>::_Vector_impl" = type { %"struct.std::_Vector_base<cv::utils::logging::LogTagManager::CrossReference, std::allocator<cv::utils::logging::LogTagManager::CrossReference>>::_Vector_impl_data" }
%"struct.std::_Vector_base<cv::utils::logging::LogTagManager::CrossReference, std::allocator<cv::utils::logging::LogTagManager::CrossReference>>::_Vector_impl_data" = type { ptr, ptr, ptr }
%"struct.cv::utils::logging::LogTagManager::ParsedLevel" = type { i32, i32 }
%"struct.cv::utils::logging::LogTagManager::NamePartInfo" = type { %"struct.cv::utils::logging::LogTagManager::ParsedLevel" }
%"struct.cv::utils::logging::LogTagManager::NamePartLookupResult" = type { %"class.std::__cxx11::basic_string", i64, ptr, i8, %"class.std::vector.49" }

@.str.14 = private unnamed_addr constant [74 x i8] c"vector::_M_range_check: __n (which is %zu) >= this->size() (which is %zu)\00", align 1

; Function Attrs: mustprogress nounwind uwtable
define linkonce_odr hidden noundef i64 @_ZNKSt6vectorIN2cv5utils7logging13LogTagManager12NamePartInfoESaIS4_EE4sizeEv(ptr noundef nonnull align 8 dereferenceable(24) %0) #2 comdat align 2 {
  %2 = alloca ptr, align 8
  store ptr %0, ptr %2, align 8, !tbaa !164
  %3 = load ptr, ptr %2, align 8
  %4 = getelementptr inbounds nuw %"struct.std::_Vector_base.3", ptr %3, i32 0, i32 0
  %5 = getelementptr inbounds nuw %"struct.std::_Vector_base<cv::utils::logging::LogTagManager::NamePartInfo, std::allocator<cv::utils::logging::LogTagManager::NamePartInfo>>::_Vector_impl_data", ptr %4, i32 0, i32 1
  %6 = load ptr, ptr %5, align 8, !tbaa !166
  %7 = getelementptr inbounds nuw %"struct.std::_Vector_base.3", ptr %3, i32 0, i32 0
  %8 = getelementptr inbounds nuw %"struct.std::_Vector_base<cv::utils::logging::LogTagManager::NamePartInfo, std::allocator<cv::utils::logging::LogTagManager::NamePartInfo>>::_Vector_impl_data", ptr %7, i32 0, i32 0
  %9 = load ptr, ptr %8, align 8, !tbaa !168
  %10 = ptrtoint ptr %6 to i64
  %11 = ptrtoint ptr %9 to i64
  %12 = sub i64 %10, %11
  %13 = sdiv exact i64 %12, 8
  ret i64 %13
}

; Function Attrs: mustprogress nounwind uwtable
define linkonce_odr hidden noundef nonnull align 4 dereferenceable(8) ptr @_ZNSt6vectorIN2cv5utils7logging13LogTagManager12NamePartInfoESaIS4_EEixEm(ptr noundef nonnull align 8 dereferenceable(24) %0, i64 noundef %1) #2 comdat align 2 {
  %3 = alloca ptr, align 8
  %4 = alloca i64, align 8
  store ptr %0, ptr %3, align 8, !tbaa !164
  store i64 %1, ptr %4, align 8, !tbaa !93
  %5 = load ptr, ptr %3, align 8
  %6 = getelementptr inbounds nuw %"struct.std::_Vector_base.3", ptr %5, i32 0, i32 0
  %7 = getelementptr inbounds nuw %"struct.std::_Vector_base<cv::utils::logging::LogTagManager::NamePartInfo, std::allocator<cv::utils::logging::LogTagManager::NamePartInfo>>::_Vector_impl_data", ptr %6, i32 0, i32 0
  %8 = load ptr, ptr %7, align 8, !tbaa !168
  %9 = load i64, ptr %4, align 8, !tbaa !93
  %10 = getelementptr inbounds nuw %"struct.cv::utils::logging::LogTagManager::NamePartInfo", ptr %8, i64 %9
  ret ptr %10
}

; Function Attrs: mustprogress uwtable
define linkonce_odr hidden void @_ZNKSt6vectorIN2cv5utils7logging13LogTagManager12NamePartInfoESaIS4_EE14_M_range_checkEm(ptr noundef nonnull align 8 dereferenceable(24) %0, i64 noundef %1) #0 comdat align 2 {
  %3 = alloca ptr, align 8
  %4 = alloca i64, align 8
  store ptr %0, ptr %3, align 8, !tbaa !164
  store i64 %1, ptr %4, align 8, !tbaa !93
  %5 = load ptr, ptr %3, align 8
  %6 = load i64, ptr %4, align 8, !tbaa !93
  %7 = call noundef i64 @_ZNKSt6vectorIN2cv5utils7logging13LogTagManager12NamePartInfoESaIS4_EE4sizeEv(ptr noundef nonnull align 8 dereferenceable(24) %5) #18
  %8 = icmp uge i64 %6, %7
  br i1 %8, label %9, label %12

9:                                                ; preds = %2
  %10 = load i64, ptr %4, align 8, !tbaa !93
  %11 = call noundef i64 @_ZNKSt6vectorIN2cv5utils7logging13LogTagManager12NamePartInfoESaIS4_EE4sizeEv(ptr noundef nonnull align 8 dereferenceable(24) %5) #18
  call void (ptr, ...) @_ZSt24__throw_out_of_range_fmtPKcz(ptr noundef @.str.14, i64 noundef %10, i64 noundef %11) #22
  unreachable

12:                                               ; preds = %2
  ret void
}

; Function Attrs: mustprogress uwtable
define linkonce_odr hidden noundef nonnull align 4 dereferenceable(8) ptr @_ZNSt6vectorIN2cv5utils7logging13LogTagManager12NamePartInfoESaIS4_EE2atEm(ptr noundef nonnull align 8 dereferenceable(24) %0, i64 noundef %1) #0 comdat align 2 {
  %3 = alloca ptr, align 8
  %4 = alloca i64, align 8
  store ptr %0, ptr %3, align 8, !tbaa !164
  store i64 %1, ptr %4, align 8, !tbaa !93
  %5 = load ptr, ptr %3, align 8
  %6 = load i64, ptr %4, align 8, !tbaa !93
  call void @_ZNKSt6vectorIN2cv5utils7logging13LogTagManager12NamePartInfoESaIS4_EE14_M_range_checkEm(ptr noundef nonnull align 8 dereferenceable(24) %5, i64 noundef %6)
  %7 = load i64, ptr %4, align 8, !tbaa !93
  %8 = call noundef nonnull align 4 dereferenceable(8) ptr @_ZNSt6vectorIN2cv5utils7logging13LogTagManager12NamePartInfoESaIS4_EEixEm(ptr noundef nonnull align 8 dereferenceable(24) %5, i64 noundef %7) #18
  ret ptr %8
}

; Function Attrs: mustprogress uwtable
define hidden noundef ptr @_ZN2cv5utils7logging13LogTagManager9NameTable24internal_getNamePartInfoEm(ptr noundef nonnull align 8 dereferenceable(272) %0, i64 noundef %1) #0 align 2 {
  %3 = alloca ptr, align 8
  %4 = alloca i64, align 8
  store ptr %0, ptr %3, align 8, !tbaa !21
  store i64 %1, ptr %4, align 8, !tbaa !93
  %5 = load ptr, ptr %3, align 8
  %6 = getelementptr inbounds nuw %"struct.cv::utils::logging::LogTagManager::NameTable", ptr %5, i32 0, i32 1
  %7 = load i64, ptr %4, align 8, !tbaa !93
  %8 = call noundef nonnull align 4 dereferenceable(8) ptr @_ZNSt6vectorIN2cv5utils7logging13LogTagManager12NamePartInfoESaIS4_EE2atEm(ptr noundef nonnull align 8 dereferenceable(24) %6, i64 noundef %7)
  ret ptr %8
}

; Function Attrs: mustprogress uwtable
define hidden void @_ZN2cv5utils7logging13LogTagManager9NameTable19addOrLookupNamePartERNS2_20NamePartLookupResultE(ptr noundef nonnull align 8 dereferenceable(272) %0, ptr noundef nonnull align 8 dereferenceable(80) %1) #0 align 2 {
  %3 = alloca ptr, align 8
  %4 = alloca ptr, align 8
  store ptr %0, ptr %3, align 8, !tbaa !21
  store ptr %1, ptr %4, align 8, !tbaa !121
  %5 = load ptr, ptr %3, align 8
  %6 = load ptr, ptr %4, align 8, !tbaa !121
  %7 = getelementptr inbounds nuw %"struct.cv::utils::logging::LogTagManager::NamePartLookupResult", ptr %6, i32 0, i32 0
  %8 = call noundef i64 @_ZN2cv5utils7logging13LogTagManager9NameTable28internal_addOrLookupNamePartERKNSt7__cxx1112basic_stringIcSt11char_traitsIcESaIcEEE(ptr noundef nonnull align 8 dereferenceable(272) %5, ptr noundef nonnull align 8 dereferenceable(32) %7)
  %9 = load ptr, ptr %4, align 8, !tbaa !121
  %10 = getelementptr inbounds nuw %"struct.cv::utils::logging::LogTagManager::NamePartLookupResult", ptr %9, i32 0, i32 1
  store i64 %8, ptr %10, align 8, !tbaa !123
  %11 = load ptr, ptr %4, align 8, !tbaa !121
  %12 = getelementptr inbounds nuw %"struct.cv::utils::logging::LogTagManager::NamePartLookupResult", ptr %11, i32 0, i32 1
  %13 = load i64, ptr %12, align 8, !tbaa !123
  %14 = call noundef ptr @_ZN2cv5utils7logging13LogTagManager9NameTable24internal_getNamePartInfoEm(ptr noundef nonnull align 8 dereferenceable(272) %5, i64 noundef %13)
  %15 = load ptr, ptr %4, align 8, !tbaa !121
  %16 = getelementptr inbounds nuw %"struct.cv::utils::logging::LogTagManager::NamePartLookupResult", ptr %15, i32 0, i32 2
  store ptr %14, ptr %16, align 8, !tbaa !117
  %17 = load ptr, ptr %4, align 8, !tbaa !121
  %18 = getelementptr inbounds nuw %"struct.cv::utils::logging::LogTagManager::NamePartLookupResult", ptr %17, i32 0, i32 3
  %19 = load i8, ptr %18, align 8, !tbaa !115, !range !56, !noundef !57
  %20 = trunc i8 %19 to i1
  br i1 %20, label %21, label %23

21:                                               ; preds = %2
  %22 = load ptr, ptr %4, align 8, !tbaa !121
  call void @_ZN2cv5utils7logging13LogTagManager9NameTable41internal_findMatchingFullNamesForNamePartERNS2_20NamePartLookupResultE(ptr noundef nonnull align 8 dereferenceable(272) %5, ptr noundef nonnull align 8 dereferenceable(80) %22)
  br label %23

23:                                               ; preds = %21, %2
  ret void
}