; Function Attrs: mustprogress uwtable
define hidden void @_ZN2cv5utils7logging13LogTagManager9NameTable19addOrLookupNamePartERNS2_20NamePartLookupResultE(ptr noundef nonnull align 8 dereferenceable(272) %0, ptr noundef nonnull align 8 dereferenceable(80) %1) local_unnamed_addr #0 align 2 {
  %3 = tail call noundef i64 @_ZN2cv5utils7logging13LogTagManager9NameTable28internal_addOrLookupNamePartERKNSt7__cxx1112basic_stringIcSt11char_traitsIcESaIcEEE(ptr noundef nonnull align 8 dereferenceable(272) %0, ptr noundef nonnull align 8 dereferenceable(32) %1)
  %4 = getelementptr inbounds nuw i8, ptr %1, i64 32
  store i64 %3, ptr %4, align 8, !tbaa !123
  %5 = getelementptr inbounds nuw i8, ptr %0, i64 24
  %6 = getelementptr inbounds nuw i8, ptr %0, i64 32
  %7 = load ptr, ptr %6, align 8, !tbaa !124
  %8 = load ptr, ptr %5, align 8, !tbaa !95
  %9 = ptrtoint ptr %7 to i64
  %10 = ptrtoint ptr %8 to i64
  %11 = sub i64 %9, %10
  %12 = ashr exact i64 %11, 3
  %.not.i.i.i = icmp ult i64 %3, %12
  br i1 %.not.i.i.i, label %_ZN2cv5utils7logging13LogTagManager9NameTable24internal_getNamePartInfoEm.exit, label %13

13:                                               ; preds = %2
  tail call void (ptr, ...) @_ZSt24__throw_out_of_range_fmtPKcz(ptr noundef nonnull @.str.14, i64 noundef %3, i64 noundef %12) #25
  unreachable

_ZN2cv5utils7logging13LogTagManager9NameTable24internal_getNamePartInfoEm.exit: ; preds = %2
  %14 = getelementptr inbounds nuw %"struct.cv::utils::logging::LogTagManager::NamePartInfo", ptr %8, i64 %3
  %15 = getelementptr inbounds nuw i8, ptr %1, i64 40
  store ptr %14, ptr %15, align 8, !tbaa !125
  %16 = getelementptr inbounds nuw i8, ptr %1, i64 48
  %17 = load i8, ptr %16, align 8, !tbaa !121, !range !110, !noundef !111
  %18 = trunc nuw i8 %17 to i1
  br i1 %18, label %19, label %20

19:                                               ; preds = %_ZN2cv5utils7logging13LogTagManager9NameTable24internal_getNamePartInfoEm.exit
  tail call void @_ZN2cv5utils7logging13LogTagManager9NameTable41internal_findMatchingFullNamesForNamePartERNS2_20NamePartLookupResultE(ptr noundef nonnull align 8 dereferenceable(272) %0, ptr noundef nonnull align 8 dereferenceable(80) %1)
  br label %20

20:                                               ; preds = %19, %_ZN2cv5utils7logging13LogTagManager9NameTable24internal_getNamePartInfoEm.exit
  ret void
}